; Function Attrs: nounwind uwtable
define dso_local void @repo_config_set_multivar(ptr noundef %0, ptr noundef %1, ptr noundef %2, ptr noundef %3, i32 noundef %4) local_unnamed_addr #0 {
  %6 = tail call ptr (ptr, ptr, ...) @repo_git_path(ptr noundef %0, ptr noundef nonnull @.str.46) #30
  %7 = tail call i32 @repo_config_set_multivar_in_file_gently(ptr noundef %0, ptr noundef %6, ptr noundef %1, ptr noundef %2, ptr noundef %3, ptr noundef null, i32 noundef %4)
  %.not.i = icmp eq i32 %7, 0
  br i1 %.not.i, label %repo_config_set_multivar_in_file.exit, label %8

8:                                                ; preds = %5
  %.not9.i = icmp eq ptr %2, null
  br i1 %.not9.i, label %11, label %9

9:                                                ; preds = %8
  %10 = tail call fastcc ptr @_(ptr noundef nonnull @.str.72)
  tail call void (ptr, ...) @die(ptr noundef %10, ptr noundef %1, ptr noundef nonnull %2) #31
  unreachable

11:                                               ; preds = %8
  %12 = tail call fastcc ptr @_(ptr noundef nonnull @.str.73)
  tail call void (ptr, ...) @die(ptr noundef %12, ptr noundef %1) #31
  unreachable

repo_config_set_multivar_in_file.exit:            ; preds = %5
  tail call void @free(ptr noundef %6) #30
  ret void
}